; Function Attrs: nounwind uwtable
define ptr @l___private_Lean_Elab_SyntheticMVars_0__Lean_Elab_Term_TacticMVarKind_maybeWithoutRecovery___rarg(ptr noundef %0, ptr noundef %1, ptr noundef %2, ptr noundef %3, ptr noundef %4, ptr noundef %5, ptr noundef %6, ptr noundef %7, ptr noundef %8, ptr noundef %9, ptr noundef %10) local_unnamed_addr #0 {
  %12 = ptrtoint ptr %0 to i64
  %13 = and i64 %12, 1
  %.not.i = icmp eq i64 %13, 0
  br i1 %.not.i, label %17, label %14

14:                                               ; preds = %11
  %15 = lshr i64 %12, 1
  %16 = trunc i64 %15 to i32
  br label %lean_obj_tag.exit

17:                                               ; preds = %11
  %18 = getelementptr i8, ptr %0, i64 4
  %.val.i = load i32, ptr %18, align 4
  %19 = lshr i32 %.val.i, 24
  br label %lean_obj_tag.exit

lean_obj_tag.exit:                                ; preds = %14, %17
  %.0.i = phi i32 [ %16, %14 ], [ %19, %17 ]
  switch i32 %.0.i, label %33 [
    i32 0, label %20
    i32 1, label %22
  ]

20:                                               ; preds = %lean_obj_tag.exit
  %21 = tail call ptr @lean_apply_9(ptr noundef %1, ptr noundef %2, ptr noundef %3, ptr noundef %4, ptr noundef %5, ptr noundef %6, ptr noundef %7, ptr noundef %8, ptr noundef %9, ptr noundef %10) #7
  br label %44

22:                                               ; preds = %lean_obj_tag.exit
  tail call void @lean_inc_heartbeat() #7
  %23 = tail call noalias ptr @mi_malloc_small(i64 noundef 32) #7
  %24 = icmp eq ptr %23, null
  br i1 %24, label %25, label %lean_alloc_closure.exit

25:                                               ; preds = %22
  tail call void @lean_internal_panic_out_of_memory() #8
  unreachable

lean_alloc_closure.exit:                          ; preds = %22
  %26 = getelementptr inbounds nuw i8, ptr %23, i64 4
  store i32 1, ptr %23, align 4, !tbaa !7
  store i32 -184549344, ptr %26, align 4
  %27 = getelementptr inbounds nuw i8, ptr %23, i64 8
  store ptr @l_Lean_Elab_Tactic_withoutRecover___rarg, ptr %27, align 8, !tbaa !10
  %28 = getelementptr inbounds nuw i8, ptr %23, i64 16
  store i16 10, ptr %28, align 8, !tbaa !17
  %29 = getelementptr inbounds nuw i8, ptr %23, i64 18
  store i16 1, ptr %29, align 2, !tbaa !17
  %30 = getelementptr inbounds nuw i8, ptr %23, i64 24
  store ptr %1, ptr %30, align 8, !tbaa !10
  %31 = tail call ptr @lean_apply_2(ptr noundef nonnull %23, ptr noundef %2, ptr noundef %3) #7
  %32 = tail call ptr @l_Lean_Elab_Term_withoutErrToSorryImp___rarg(ptr noundef %31, ptr noundef %4, ptr noundef %5, ptr noundef %6, ptr noundef %7, ptr noundef %8, ptr noundef %9, ptr noundef %10) #7
  br label %44

33:                                               ; preds = %lean_obj_tag.exit
  tail call void @lean_inc_heartbeat() #7
  %34 = tail call noalias ptr @mi_malloc_small(i64 noundef 32) #7
  %35 = icmp eq ptr %34, null
  br i1 %35, label %36, label %lean_alloc_closure.exit39

36:                                               ; preds = %33
  tail call void @lean_internal_panic_out_of_memory() #8
  unreachable

lean_alloc_closure.exit39:                        ; preds = %33
  %37 = getelementptr inbounds nuw i8, ptr %34, i64 4
  store i32 1, ptr %34, align 4, !tbaa !7
  store i32 -184549344, ptr %37, align 4
  %38 = getelementptr inbounds nuw i8, ptr %34, i64 8
  store ptr @l_Lean_Elab_Tactic_withoutRecover___rarg, ptr %38, align 8, !tbaa !10
  %39 = getelementptr inbounds nuw i8, ptr %34, i64 16
  store i16 10, ptr %39, align 8, !tbaa !17
  %40 = getelementptr inbounds nuw i8, ptr %34, i64 18
  store i16 1, ptr %40, align 2, !tbaa !17
  %41 = getelementptr inbounds nuw i8, ptr %34, i64 24
  store ptr %1, ptr %41, align 8, !tbaa !10
  %42 = tail call ptr @lean_apply_2(ptr noundef nonnull %34, ptr noundef %2, ptr noundef %3) #7
  %43 = tail call ptr @l_Lean_Elab_Term_withoutErrToSorryImp___rarg(ptr noundef %42, ptr noundef %4, ptr noundef %5, ptr noundef %6, ptr noundef %7, ptr noundef %8, ptr noundef %9, ptr noundef %10) #7
  br label %44

44:                                               ; preds = %lean_alloc_closure.exit39, %lean_alloc_closure.exit, %20
  %.0 = phi ptr [ %43, %lean_alloc_closure.exit39 ], [ %32, %lean_alloc_closure.exit ], [ %21, %20 ]
  ret ptr %.0
}